Certificate:
    Data:
        Version: 3 (0x2)
        Serial Number: 1 (0x1)
    Signature Algorithm: sha1WithRSAEncryption
        Issuer: C=US, ST=CA, L=SanFrancisco, O=Fort-Funston, OU=changeme, CN=changeme/name=changeme/emailAddress=mail@host.domain
        Validity
            Not Before: Apr 14 07:21:42 2014 GMT
            Not After : Apr 11 07:21:42 2024 GMT
        Subject: C=US, ST=CA, L=SanFrancisco, O=Fort-Funston, OU=changeme, CN=server/name=changeme/emailAddress=mail@host.domain
        Subject Public Key Info:
            Public Key Algorithm: rsaEncryption
                Public-Key: (1024 bit)
                Modulus:
                    00:c2:74:7b:96:64:45:0b:8c:70:c2:60:ba:7d:7b:
                    35:7e:ef:4b:ad:1d:2c:b6:70:6b:60:02:42:cf:86:
                    cf:8f:13:cd:a0:6b:25:80:19:a1:43:5c:e6:5c:02:
                    30:61:01:a7:8e:8e:e4:2a:18:ab:d7:b2:a3:c6:c1:
                    c6:8f:84:f5:74:44:67:38:fb:06:f3:e4:4d:8c:4c:
                    a8:5d:f6:f6:33:a1:21:1d:b5:9b:7a:f2:2a:0d:94:
                    35:8a:e3:3c:37:89:cc:93:af:00:11:27:3d:bc:a4:
                    89:c3:c5:c9:96:c5:e3:8a:a3:58:0c:25:4a:9d:c1:
                    6b:ae:78:5b:85:91:cb:05:69
                Exponent: 65537 (0x10001)
        X509v3 extensions:
            X509v3 Basic Constraints: 
                CA:FALSE
            Netscape Cert Type: 
                SSL Server
            Netscape Comment: 
                Easy-RSA Generated Server Certificate
            X509v3 Subject Key Identifier: 
                62:8B:2D:32:1E:63:46:86:79:49:C7:6B:83:87:A0:FD:29:A6:84:E8
            X509v3 Authority Key Identifier: 
                keyid:B5:2E:01:E0:DA:AC:DC:20:4E:3D:72:43:25:49:F4:39:C0:D1:B0:DD
                DirName:/C=US/ST=CA/L=SanFrancisco/O=Fort-Funston/OU=changeme/CN=changeme/name=changeme/emailAddress=mail@host.domain
                serial:80:50:6C:8E:87:D2:95:A9

            X509v3 Extended Key Usage: 
                TLS Web Server Authentication
            X509v3 Key Usage: 
                Digital Signature, Key Encipherment
    Signature Algorithm: sha1WithRSAEncryption
         9f:fb:a2:e8:cf:3d:34:01:ba:39:8a:6e:9f:e8:1c:14:f3:26:
         c2:cd:86:51:03:1a:a4:7d:52:a0:c3:2c:4a:d4:ab:35:94:c7:
         8c:31:00:5e:5a:27:5a:8a:b4:7c:4a:69:55:9d:00:e8:23:2a:
         c7:c0:17:93:30:86:e2:e5:97:27:18:a1:b5:48:a8:05:3c:79:
         9c:a0:63:0d:ac:2d:55:f2:e4:98:3a:82:7d:12:1a:dd:00:33:
         0e:82:c0:65:44:61:51:42:9b:78:8f:97:02:05:a5:ea:5d:55:
         eb:6b:bf:78:93:44:cc:96:95:97:be:5b:1f:8a:34:72:b1:10:
         a8:32
-----BEGIN CERTIFICATE-----
MIIELzCCA5igAwIBAgIBATANBgkqhkiG9w0BAQUFADCBojELMAkGA1UEBhMCVVMx
CzAJBgNVBAgTAkNBMRUwEwYDVQQHEwxTYW5GcmFuY2lzY28xFTATBgNVBAoTDEZv
cnQtRnVuc3RvbjERMA8GA1UECxMIY2hhbmdlbWUxETAPBgNVBAMTCGNoYW5nZW1l
MREwDwYDVQQpEwhjaGFuZ2VtZTEfMB0GCSqGSIb3DQEJARYQbWFpbEBob3N0LmRv
bWFpbjAeFw0xNDA0MTQwNzIxNDJaFw0yNDA0MTEwNzIxNDJaMIGgMQswCQYDVQQG
EwJVUzELMAkGA1UECBMCQ0ExFTATBgNVBAcTDFNhbkZyYW5jaXNjbzEVMBMGA1UE
ChMMRm9ydC1GdW5zdG9uMREwDwYDVQQLEwhjaGFuZ2VtZTEPMA0GA1UEAxMGc2Vy
dmVyMREwDwYDVQQpEwhjaGFuZ2VtZTEfMB0GCSqGSIb3DQEJARYQbWFpbEBob3N0
LmRvbWFpbjCBnzANBgkqhkiG9w0BAQEFAAOBjQAwgYkCgYEAwnR7lmRFC4xwwmC6
fXs1fu9LrR0stnBrYAJCz4bPjxPNoGslgBmhQ1zmXAIwYQGnjo7kKhir17KjxsHG
j4T1dERnOPsG8+RNjEyoXfb2M6EhHbWbevIqDZQ1iuM8N4nMk68AESc9vKSJw8XJ
lsXjiqNYDCVKncFrrnhbhZHLBWkCAwEAAaOCAXMwggFvMAkGA1UdEwQCMAAwEQYJ
YIZIAYb4QgEBBAQDAgZAMDQGCWCGSAGG+EIBDQQnFiVFYXN5LVJTQSBHZW5lcmF0
ZWQgU2VydmVyIENlcnRpZmljYXRlMB0GA1UdDgQWBBRiiy0yHmNGhnlJx2uDh6D9
KaaE6DCB1wYDVR0jBIHPMIHMgBS1LgHg2qzcIE49ckMlSfQ5wNGw3aGBqKSBpTCB
ojELMAkGA1UEBhMCVVMxCzAJBgNVBAgTAkNBMRUwEwYDVQQHEwxTYW5GcmFuY2lz
Y28xFTATBgNVBAoTDEZvcnQtRnVuc3RvbjERMA8GA1UECxMIY2hhbmdlbWUxETAP
BgNVBAMTCGNoYW5nZW1lMREwDwYDVQQpEwhjaGFuZ2VtZTEfMB0GCSqGSIb3DQEJ
ARYQbWFpbEBob3N0LmRvbWFpboIJAIBQbI6H0pWpMBMGA1UdJQQMMAoGCCsGAQUF
BwMBMAsGA1UdDwQEAwIFoDANBgkqhkiG9w0BAQUFAAOBgQCf+6Lozz00Abo5im6f
6BwU8ybCzYZRAxqkfVKgwyxK1Ks1lMeMMQBeWidairR8SmlVnQDoIyrHwBeTMIbi
5ZcnGKG1SKgFPHmcoGMNrC1V8uSYOoJ9EhrdADMOgsBlRGFRQpt4j5cCBaXqXVXr
a794k0TMlpWXvlsfijRysRCoMg==
-----END CERTIFICATE-----
